(lp0
(lp1
(lp2
V12:00 am\u000aTue, Nov 1
p3
aVClear.
p4
aV10 mi
p5
aa(lp6
V1:00 am
p7
aVPassing clouds.
p8
aVN/A
p9
aa(lp10
V2:00 am
p11
aVPassing clouds.
p12
aVN/A
p13
aa(lp14
V3:00 am
p15
aVPassing clouds.
p16
aVN/A
p17
aa(lp18
V4:00 am
p19
aVPassing clouds.
p20
aVN/A
p21
aa(lp22
V5:00 am
p23
aVPassing clouds.
p24
aV5 mi
p25
aa(lp26
V6:00 am
p27
aVPassing clouds.
p28
aV5 mi
p29
aa(lp30
V7:00 am
p31
aVPassing clouds.
p32
aV4 mi
p33
aa(lp34
V8:00 am
p35
aVFog.
p36
aV3 mi
p37
aa(lp38
V9:00 am
p39
aVFog.
p40
aV3 mi
p41
aa(lp42
V10:00 am
p43
aVFog.
p44
aV3 mi
p45
aa(lp46
V11:00 am
p47
aVFog.
p48
aV3 mi
p49
aa(lp50
V12:00 pm
p51
aVFog.
p52
aV3 mi
p53
aa(lp54
V1:00 pm
p55
aVLight rain. Fog.
p56
aV2 mi
p57
aa(lp58
V2:00 pm
p59
aVFog.
p60
aV2 mi
p61
aa(lp62
V3:00 pm
p63
aVFog.
p64
aV3 mi
p65
aa(lp66
V4:00 pm
p67
aVFog.
p68
aV2 mi
p69
aa(lp70
V5:00 pm
p71
aVScattered clouds.
p72
aV4 mi
p73
aa(lp74
V6:00 pm
p75
aVFog.
p76
aV3 mi
p77
aa(lp78
V7:00 pm
p79
aVPassing clouds.
p80
aV4 mi
p81
aa(lp82
V8:00 pm
p83
aVPassing clouds.
p84
aV4 mi
p85
aa(lp86
V9:00 pm
p87
aVFog.
p88
aV3 mi
p89
aa(lp90
V10:00 pm
p91
aVFog.
p92
aV3 mi
p93
aa(lp94
V11:00 pm
p95
aVFog.
p96
aV2 mi
p97
aaa(lp98
(lp99
V12:00 am\u000aWed, Nov 2
p100
aVFog.
p101
aV2 mi
p102
aa(lp103
V1:00 am
p104
aVFog.
p105
aV2 mi
p106
aa(lp107
V2:00 am
p108
aVFog.
p109
aV2 mi
p110
aa(lp111
V3:00 am
p112
aVFog.
p113
aV2 mi
p114
aa(lp115
V4:00 am
p116
aVFog.
p117
aV2 mi
p118
aa(lp119
V5:00 am
p120
aVFog.
p121
aV2 mi
p122
aa(lp123
V6:00 am
p124
aVFog.
p125
aV2 mi
p126
aa(lp127
V7:00 am
p128
aVFog.
p129
aV2 mi
p130
aa(lp131
V8:00 am
p132
aVFog.
p133
aV1 mi
p134
aa(lp135
V9:00 am
p136
aVFog.
p137
aV1 mi
p138
aa(lp139
V10:00 am
p140
aVFog.
p141
aV1 mi
p142
aa(lp143
V11:00 am
p144
aVFog.
p145
aV1 mi
p146
aa(lp147
V12:00 pm
p148
aVFog.
p149
aV1 mi
p150
aa(lp151
V1:00 pm
p152
aVFog.
p153
aV2 mi
p154
aa(lp155
V2:00 pm
p156
aVFog.
p157
aV2 mi
p158
aa(lp159
V3:00 pm
p160
aVFog.
p161
aV2 mi
p162
aa(lp163
V4:00 pm
p164
aVFog.
p165
aV2 mi
p166
aa(lp167
V5:00 pm
p168
aVFog.
p169
aV2 mi
p170
aa(lp171
V6:00 pm
p172
aVFog.
p173
aV2 mi
p174
aa(lp175
V7:00 pm
p176
aVFog.
p177
aV2 mi
p178
aa(lp179
V8:00 pm
p180
aVFog.
p181
aV2 mi
p182
aa(lp183
V9:00 pm
p184
aVFog.
p185
aV2 mi
p186
aa(lp187
V10:00 pm
p188
aVFog.
p189
aV2 mi
p190
aa(lp191
V11:00 pm
p192
aVFog.
p193
aV2 mi
p194
aaa(lp195
(lp196
V12:00 am\u000aThu, Nov 3
p197
aVFog.
p198
aV1 mi
p199
aa(lp200
V1:00 am
p201
aVFog.
p202
aV1 mi
p203
aa(lp204
V2:00 am
p205
aVFog.
p206
aV1 mi
p207
aa(lp208
V3:00 am
p209
aVFog.
p210
aV1 mi
p211
aa(lp212
V4:00 am
p213
aVFog.
p214
aV1 mi
p215
aa(lp216
V5:00 am
p217
aVFog.
p218
aV1 mi
p219
aa(lp220
V6:00 am
p221
aVFog.
p222
aV1 mi
p223
aa(lp224
V7:00 am
p225
aVFog.
p226
aV0 mi
p227
aa(lp228
V8:00 am
p229
aVFog.
p230
aV0 mi
p231
aa(lp232
V9:00 am
p233
aVFog.
p234
aV0 mi
p235
aa(lp236
V10:00 am
p237
aVFog.
p238
aV1 mi
p239
aa(lp240
V11:00 am
p241
aVFog.
p242
aV1 mi
p243
aa(lp244
V12:00 pm
p245
aVFog.
p246
aV2 mi
p247
aa(lp248
V1:00 pm
p249
aVScattered clouds.
p250
aV4 mi
p251
aa(lp252
V2:00 pm
p253
aVScattered clouds.
p254
aVN/A
p255
aa(lp256
V3:00 pm
p257
aVScattered clouds.
p258
aVN/A
p259
aa(lp260
V4:00 pm
p261
aVScattered clouds.
p262
aVN/A
p263
aa(lp264
V5:00 pm
p265
aVScattered clouds.
p266
aVN/A
p267
aa(lp268
V6:00 pm
p269
aVScattered clouds.
p270
aVN/A
p271
aa(lp272
V7:00 pm
p273
aVPassing clouds.
p274
aVN/A
p275
aa(lp276
V8:00 pm
p277
aVPassing clouds.
p278
aV4 mi
p279
aa(lp280
V9:00 pm
p281
aVPassing clouds.
p282
aV4 mi
p283
aa(lp284
V10:00 pm
p285
aVPassing clouds.
p286
aV4 mi
p287
aa(lp288
V11:00 pm
p289
aVClear.
p290
aV4 mi
p291
aaa(lp292
(lp293
V12:00 am\u000aFri, Nov 4
p294
aVClear.
p295
aV4 mi
p296
aa(lp297
V1:00 am
p298
aVFog.
p299
aV3 mi
p300
aa(lp301
V2:00 am
p302
aVFog.
p303
aV2 mi
p304
aa(lp305
V3:00 am
p306
aVFog.
p307
aV2 mi
p308
aa(lp309
V4:00 am
p310
aVFog.
p311
aV2 mi
p312
aa(lp313
V5:00 am
p314
aVFog.
p315
aV2 mi
p316
aa(lp317
V6:00 am
p318
aVFog.
p319
aV2 mi
p320
aa(lp321
V7:00 am
p322
aVFog.
p323
aV1 mi
p324
aa(lp325
V8:00 am
p326
aVFog.
p327
aV1 mi
p328
aa(lp329
V9:00 am
p330
aVFog.
p331
aV1 mi
p332
aa(lp333
V10:00 am
p334
aVFog.
p335
aV1 mi
p336
aa(lp337
V11:00 am
p338
aVFog.
p339
aV1 mi
p340
aa(lp341
V12:00 pm
p342
aVHaze.
p343
aV1 mi
p344
aa(lp345
V1:00 pm
p346
aVHaze.
p347
aV1 mi
p348
aa(lp349
V2:00 pm
p350
aVPartly sunny.
p351
aV2 mi
p352
aa(lp353
V3:00 pm
p354
aVScattered clouds.
p355
aV3 mi
p356
aa(lp357
V4:00 pm
p358
aVScattered clouds.
p359
aV4 mi
p360
aa(lp361
V5:00 pm
p362
aVScattered clouds.
p363
aV4 mi
p364
aa(lp365
V6:00 pm
p366
aVScattered clouds.
p367
aV4 mi
p368
aa(lp369
V7:00 pm
p370
aVPassing clouds.
p371
aV4 mi
p372
aa(lp373
V8:00 pm
p374
aVPassing clouds.
p375
aV4 mi
p376
aa(lp377
V9:00 pm
p378
aVPassing clouds.
p379
aV4 mi
p380
aa(lp381
V10:00 pm
p382
aVFog.
p383
aV3 mi
p384
aa(lp385
V11:00 pm
p386
aVFog.
p387
aV2 mi
p388
aaa(lp389
(lp390
V12:00 am\u000aSat, Nov 5
p391
aVFog.
p392
aV2 mi
p393
aa(lp394
V1:00 am
p395
aVFog.
p396
aV2 mi
p397
aa(lp398
V2:00 am
p399
aVFog.
p400
aV2 mi
p401
aa(lp402
V3:00 am
p403
aVFog.
p404
aV2 mi
p405
aa(lp406
V4:00 am
p407
aVFog.
p408
aV2 mi
p409
aa(lp410
V5:00 am
p411
aVFog.
p412
aV2 mi
p413
aa(lp414
V6:00 am
p415
aVFog.
p416
aV2 mi
p417
aa(lp418
V7:00 am
p419
aVFog.
p420
aV2 mi
p421
aa(lp422
V8:00 am
p423
aVFog.
p424
aV1 mi
p425
aa(lp426
V9:00 am
p427
aVFog.
p428
aV1 mi
p429
aa(lp430
V10:00 am
p431
aVFog.
p432
aV1 mi
p433
aa(lp434
V11:00 am
p435
aVFog.
p436
aV1 mi
p437
aa(lp438
V12:00 pm
p439
aVFog.
p440
aV1 mi
p441
aa(lp442
V1:00 pm
p443
aVFog.
p444
aV1 mi
p445
aa(lp446
V2:00 pm
p447
aVFog.
p448
aV2 mi
p449
aa(lp450
V3:00 pm
p451
aVFog.
p452
aV2 mi
p453
aa(lp454
V4:00 pm
p455
aVFog.
p456
aV1 mi
p457
aa(lp458
V5:00 pm
p459
aVScattered clouds.
p460
aV2 mi
p461
aa(lp462
V6:00 pm
p463
aVFog.
p464
aV2 mi
p465
aa(lp466
V7:00 pm
p467
aVFog.
p468
aV3 mi
p469
aa(lp470
V8:00 pm
p471
aVFog.
p472
aV2 mi
p473
aa(lp474
V9:00 pm
p475
aVFog.
p476
aV2 mi
p477
aa(lp478
V10:00 pm
p479
aVFog.
p480
aV2 mi
p481
aa(lp482
V11:00 pm
p483
aVFog.
p484
aV2 mi
p485
aaa(lp486
(lp487
V12:00 am\u000aSun, Nov 6
p488
aVFog.
p489
aV3 mi
p490
aa(lp491
V1:00 am
p492
aVFog.
p493
aV2 mi
p494
aa(lp495
V2:00 am
p496
aVFog.
p497
aV2 mi
p498
aa(lp499
V3:00 am
p500
aVFog.
p501
aV2 mi
p502
aa(lp503
V4:00 am
p504
aVLight rain. Fog.
p505
aV2 mi
p506
aa(lp507
V5:00 am
p508
aVFog.
p509
aV2 mi
p510
aa(lp511
V6:00 am
p512
aVFog.
p513
aV2 mi
p514
aa(lp515
V7:00 am
p516
aVFog.
p517
aV2 mi
p518
aa(lp519
V8:00 am
p520
aVFog.
p521
aV1 mi
p522
aa(lp523
V9:00 am
p524
aVFog.
p525
aV1 mi
p526
aa(lp527
V10:00 am
p528
aVFog.
p529
aV1 mi
p530
aa(lp531
V11:00 am
p532
aVFog.
p533
aV1 mi
p534
aa(lp535
V12:00 pm
p536
aVFog.
p537
aV1 mi
p538
aa(lp539
V1:00 pm
p540
aVFog.
p541
aV1 mi
p542
aa(lp543
V2:00 pm
p544
aVFog.
p545
aV1 mi
p546
aa(lp547
V3:00 pm
p548
aVFog.
p549
aV2 mi
p550
aa(lp551
V4:00 pm
p552
aVFog.
p553
aV1 mi
p554
aa(lp555
V5:00 pm
p556
aVFog.
p557
aV2 mi
p558
aa(lp559
V6:00 pm
p560
aVFog.
p561
aV2 mi
p562
aa(lp563
V7:00 pm
p564
aVSprinkles. Fog.
p565
aV2 mi
p566
aa(lp567
V8:00 pm
p568
aVSprinkles. Fog.
p569
aV2 mi
p570
aa(lp571
V9:00 pm
p572
aVSprinkles. Fog.
p573
aV1 mi
p574
aa(lp575
V10:00 pm
p576
aVSprinkles. Fog.
p577
aV2 mi
p578
aa(lp579
V11:00 pm
p580
aVSprinkles. Passing clouds.
p581
aV4 mi
p582
aaa(lp583
(lp584
V12:00 am\u000aMon, Nov 7
p585
aVSprinkles. Passing clouds.
p586
aV4 mi
p587
aa(lp588
V1:00 am
p589
aVSprinkles. Passing clouds.
p590
aV4 mi
p591
aa(lp592
V2:00 am
p593
aVSprinkles. Passing clouds.
p594
aV5 mi
p595
aa(lp596
V3:00 am
p597
aVSprinkles. Passing clouds.
p598
aVN/A
p599
aa(lp600
V4:00 am
p601
aVSprinkles. Passing clouds.
p602
aVN/A
p603
aa(lp604
V5:00 am
p605
aVSprinkles. Passing clouds.
p606
aVN/A
p607
aa(lp608
V6:00 am
p609
aVPassing clouds.
p610
aVN/A
p611
aa(lp612
V7:00 am
p613
aVPassing clouds.
p614
aVN/A
p615
aa(lp616
V8:00 am
p617
aVScattered clouds.
p618
aVN/A
p619
aa(lp620
V9:00 am
p621
aVScattered clouds.
p622
aVN/A
p623
aa(lp624
V10:00 am
p625
aVScattered clouds.
p626
aVN/A
p627
aa(lp628
V11:00 am
p629
aVScattered clouds.
p630
aVN/A
p631
aa(lp632
V12:00 pm
p633
aVScattered clouds.
p634
aVN/A
p635
aa(lp636
V1:00 pm
p637
aVScattered clouds.
p638
aVN/A
p639
aa(lp640
V2:00 pm
p641
aVLight rain. Scattered clouds.
p642
aVN/A
p643
aa(lp644
V3:00 pm
p645
aVLight rain. Scattered clouds.
p646
aVN/A
p647
aa(lp648
V4:00 pm
p649
aVLight rain. Scattered clouds.
p650
aV4 mi
p651
aa(lp652
V5:00 pm
p653
aVLight rain. Scattered clouds.
p654
aV4 mi
p655
aa(lp656
V6:00 pm
p657
aVLight rain. Scattered clouds.
p658
aV4 mi
p659
aa(lp660
V7:00 pm
p661
aVLight rain. Passing clouds.
p662
aVN/A
p663
aa(lp664
V8:00 pm
p665
aVLight rain. Passing clouds.
p666
aVN/A
p667
aa(lp668
V9:00 pm
p669
aVPassing clouds.
p670
aVN/A
p671
aa(lp672
V10:00 pm
p673
aVLight rain. Passing clouds.
p674
aVN/A
p675
aa(lp676
V11:00 pm
p677
aVLight rain. Passing clouds.
p678
aVN/A
p679
aaa(lp680
(lp681
V12:00 am\u000aTue, Nov 8
p682
aVPassing clouds.
p683
aVN/A
p684
aa(lp685
V1:00 am
p686
aVPassing clouds.
p687
aVN/A
p688
aa(lp689
V2:00 am
p690
aVPassing clouds.
p691
aVN/A
p692
aa(lp693
V3:00 am
p694
aVPassing clouds.
p695
aV4 mi
p696
aa(lp697
V4:00 am
p698
aVPassing clouds.
p699
aV4 mi
p700
aa(lp701
V5:00 am
p702
aVPassing clouds.
p703
aV5 mi
p704
aa(lp705
V6:00 am
p706
aVPassing clouds.
p707
aV4 mi
p708
aa(lp709
V7:00 am
p710
aVFog.
p711
aV3 mi
p712
aa(lp713
V8:00 am
p714
aVFog.
p715
aV3 mi
p716
aa(lp717
V9:00 am
p718
aVFog.
p719
aV3 mi
p720
aa(lp721
V10:00 am
p722
aVFog.
p723
aV3 mi
p724
aa(lp725
V11:00 am
p726
aVScattered clouds.
p727
aV5 mi
p728
aa(lp729
V12:00 pm
p730
aVScattered clouds.
p731
aVN/A
p732
aa(lp733
V1:00 pm
p734
aVScattered clouds.
p735
aVN/A
p736
aa(lp737
V2:00 pm
p738
aVScattered clouds.
p739
aVN/A
p740
aa(lp741
V3:00 pm
p742
aVScattered clouds.
p743
aVN/A
p744
aa(lp745
V4:00 pm
p746
aVScattered clouds.
p747
aVN/A
p748
aa(lp749
V5:00 pm
p750
aVScattered clouds.
p751
aVN/A
p752
aa(lp753
V6:00 pm
p754
aVScattered clouds.
p755
aVN/A
p756
aa(lp757
V7:00 pm
p758
aVPassing clouds.
p759
aVN/A
p760
aa(lp761
V8:00 pm
p762
aVLight rain. Passing clouds.
p763
aVN/A
p764
aa(lp765
V9:00 pm
p766
aVLight rain. Passing clouds.
p767
aV4 mi
p768
aa(lp769
V10:00 pm
p770
aVLight rain. Passing clouds.
p771
aV4 mi
p772
aa(lp773
V11:00 pm
p774
aVLight rain. Passing clouds.
p775
aV4 mi
p776
aaa(lp777
(lp778
V12:00 am\u000aWed, Nov 9
p779
aVLight rain. Passing clouds.
p780
aV5 mi
p781
aa(lp782
V1:00 am
p783
aVLight rain. Passing clouds.
p784
aV4 mi
p785
aa(lp786
V2:00 am
p787
aVLight rain. Fog.
p788
aV3 mi
p789
aa(lp790
V3:00 am
p791
aVLight rain. Fog.
p792
aV2 mi
p793
aa(lp794
V4:00 am
p795
aVLight rain. Fog.
p796
aV2 mi
p797
aa(lp798
V5:00 am
p799
aVLight rain. Fog.
p800
aV3 mi
p801
aa(lp802
V6:00 am
p803
aVLight rain. Partly cloudy.
p804
aV4 mi
p805
aa(lp806
V7:00 am
p807
aVLight rain. Partly cloudy.
p808
aV4 mi
p809
aa(lp810
V8:00 am
p811
aVLight rain. Fog.
p812
aV3 mi
p813
aa(lp814
V9:00 am
p815
aVLight rain. Partly sunny.
p816
aV4 mi
p817
aa(lp818
V10:00 am
p819
aVLight rain. Fog.
p820
aV3 mi
p821
aa(lp822
V11:00 am
p823
aVLight rain. Partly sunny.
p824
aV4 mi
p825
aa(lp826
V12:00 pm
p827
aVPartly sunny.
p828
aV4 mi
p829
aa(lp830
V1:00 pm
p831
aVPartly sunny.
p832
aVN/A
p833
aa(lp834
V2:00 pm
p835
aVPartly sunny.
p836
aVN/A
p837
aa(lp838
V3:00 pm
p839
aVScattered clouds.
p840
aVN/A
p841
aa(lp842
V4:00 pm
p843
aVScattered clouds.
p844
aVN/A
p845
aa(lp846
V5:00 pm
p847
aVScattered clouds.
p848
aVN/A
p849
aa(lp850
V6:00 pm
p851
aVScattered clouds.
p852
aV4 mi
p853
aa(lp854
V7:00 pm
p855
aVPassing clouds.
p856
aV5 mi
p857
aa(lp858
V8:00 pm
p859
aVPartly cloudy.
p860
aV5 mi
p861
aa(lp862
V9:00 pm
p863
aVPartly cloudy.
p864
aV5 mi
p865
aa(lp866
V10:00 pm
p867
aVPassing clouds.
p868
aV4 mi
p869
aa(lp870
V11:00 pm
p871
aVPassing clouds.
p872
aV4 mi
p873
aaa(lp874
(lp875
V12:00 am\u000aThu, Nov 10
p876
aVFog.
p877
aV3 mi
p878
aa(lp879
V1:00 am
p880
aVFog.
p881
aV3 mi
p882
aa(lp883
V2:00 am
p884
aVFog.
p885
aV2 mi
p886
aa(lp887
V3:00 am
p888
aVFog.
p889
aV2 mi
p890
aa(lp891
V4:00 am
p892
aVFog.
p893
aV2 mi
p894
aa(lp895
V5:00 am
p896
aVFog.
p897
aV2 mi
p898
aa(lp899
V6:00 am
p900
aVFog.
p901
aV2 mi
p902
aa(lp903
V7:00 am
p904
aVFog.
p905
aV2 mi
p906
aa(lp907
V8:00 am
p908
aVFog.
p909
aV2 mi
p910
aa(lp911
V9:00 am
p912
aVFog.
p913
aV2 mi
p914
aa(lp915
V10:00 am
p916
aVFog.
p917
aV1 mi
p918
aa(lp919
V11:00 am
p920
aVFog.
p921
aV2 mi
p922
aa(lp923
V12:00 pm
p924
aVFog.
p925
aV2 mi
p926
aa(lp927
V1:00 pm
p928
aVFog.
p929
aV2 mi
p930
aa(lp931
V2:00 pm
p932
aVFog.
p933
aV3 mi
p934
aa(lp935
V3:00 pm
p936
aVFog.
p937
aV3 mi
p938
aa(lp939
V4:00 pm
p940
aVScattered clouds.
p941
aV4 mi
p942
aa(lp943
V5:00 pm
p944
aVScattered clouds.
p945
aV4 mi
p946
aa(lp947
V6:00 pm
p948
aVPartly sunny.
p949
aV5 mi
p950
aa(lp951
V7:00 pm
p952
aVPassing clouds.
p953
aV4 mi
p954
aa(lp955
V8:00 pm
p956
aVPassing clouds.
p957
aV4 mi
p958
aa(lp959
V9:00 pm
p960
aVPassing clouds.
p961
aV4 mi
p962
aa(lp963
V10:00 pm
p964
aVPassing clouds.
p965
aV4 mi
p966
aa(lp967
V11:00 pm
p968
aVPassing clouds.
p969
aV4 mi
p970
aaa(lp971
(lp972
V12:00 am\u000aFri, Nov 11
p973
aVPassing clouds.
p974
aV5 mi
p975
aa(lp976
V1:00 am
p977
aVPassing clouds.
p978
aV5 mi
p979
aa(lp980
V2:00 am
p981
aVPassing clouds.
p982
aV4 mi
p983
aa(lp984
V3:00 am
p985
aVPassing clouds.
p986
aV4 mi
p987
aa(lp988
V4:00 am
p989
aVLight rain. Passing clouds.
p990
aV4 mi
p991
aa(lp992
V5:00 am
p993
aVFog.
p994
aV3 mi
p995
aa(lp996
V6:00 am
p997
aVLight rain. Fog.
p998
aV3 mi
p999
aa(lp1000
V7:00 am
p1001
aVFog.
p1002
aV3 mi
p1003
aa(lp1004
V8:00 am
p1005
aVLight rain. Fog.
p1006
aV2 mi
p1007
aa(lp1008
V9:00 am
p1009
aVLight rain. Fog.
p1010
aV2 mi
p1011
aa(lp1012
V10:00 am
p1013
aVLight rain. Partly sunny.
p1014
aV4 mi
p1015
aa(lp1016
V11:00 am
p1017
aVPartly sunny.
p1018
aV5 mi
p1019
aa(lp1020
V12:00 pm
p1021
aVFog.
p1022
aV3 mi
p1023
aa(lp1024
V1:00 pm
p1025
aVFog.
p1026
aV3 mi
p1027
aa(lp1028
V2:00 pm
p1029
aVFog.
p1030
aV3 mi
p1031
aa(lp1032
V3:00 pm
p1033
aVScattered clouds.
p1034
aV4 mi
p1035
aa(lp1036
V4:00 pm
p1037
aVScattered clouds.
p1038
aV4 mi
p1039
aa(lp1040
V5:00 pm
p1041
aVScattered clouds.
p1042
aV4 mi
p1043
aa(lp1044
V6:00 pm
p1045
aVScattered clouds.
p1046
aV4 mi
p1047
aa(lp1048
V7:00 pm
p1049
aVPassing clouds.
p1050
aV4 mi
p1051
aa(lp1052
V8:00 pm
p1053
aVLight rain. Passing clouds.
p1054
aV4 mi
p1055
aa(lp1056
V9:00 pm
p1057
aVLight rain. Passing clouds.
p1058
aV4 mi
p1059
aa(lp1060
V10:00 pm
p1061
aVFog.
p1062
aV3 mi
p1063
aa(lp1064
V11:00 pm
p1065
aVFog.
p1066
aV2 mi
p1067
aaa(lp1068
(lp1069
V12:00 am\u000aSat, Nov 12
p1070
aVFog.
p1071
aV2 mi
p1072
aa(lp1073
V1:00 am
p1074
aVFog.
p1075
aV1 mi
p1076
aa(lp1077
V2:00 am
p1078
aVFog.
p1079
aV1 mi
p1080
aa(lp1081
V3:00 am
p1082
aVFog.
p1083
aV0 mi
p1084
aa(lp1085
V4:00 am
p1086
aVFog.
p1087
aV0 mi
p1088
aa(lp1089
V5:00 am
p1090
aVFog.
p1091
aV0 mi
p1092
aa(lp1093
V6:00 am
p1094
aVFog.
p1095
aV1 mi
p1096
aa(lp1097
V7:00 am
p1098
aVFog.
p1099
aV1 mi
p1100
aa(lp1101
V8:00 am
p1102
aVFog.
p1103
aV0 mi
p1104
aa(lp1105
V9:00 am
p1106
aVFog.
p1107
aV0 mi
p1108
aa(lp1109
V10:00 am
p1110
aVFog.
p1111
aV0 mi
p1112
aa(lp1113
V11:00 am
p1114
aVFog.
p1115
aV1 mi
p1116
aa(lp1117
V12:00 pm
p1118
aVFog.
p1119
aV1 mi
p1120
aa(lp1121
V1:00 pm
p1122
aVFog.
p1123
aV2 mi
p1124
aa(lp1125
V2:00 pm
p1126
aVFog.
p1127
aV2 mi
p1128
aa(lp1129
V3:00 pm
p1130
aVScattered clouds.
p1131
aV4 mi
p1132
aa(lp1133
V4:00 pm
p1134
aVScattered clouds.
p1135
aV5 mi
p1136
aa(lp1137
V5:00 pm
p1138
aVPassing clouds.
p1139
aV4 mi
p1140
aa(lp1141
V6:00 pm
p1142
aVPassing clouds.
p1143
aV4 mi
p1144
aa(lp1145
V7:00 pm
p1146
aVPassing clouds.
p1147
aV5 mi
p1148
aa(lp1149
V8:00 pm
p1150
aVPassing clouds.
p1151
aV4 mi
p1152
aa(lp1153
V9:00 pm
p1154
aVPassing clouds.
p1155
aV4 mi
p1156
aa(lp1157
V10:00 pm
p1158
aVPassing clouds.
p1159
aV4 mi
p1160
aa(lp1161
V11:00 pm
p1162
aVPassing clouds.
p1163
aV4 mi
p1164
aaa(lp1165
(lp1166
V12:00 am\u000aSun, Nov 13
p1167
aVClear.
p1168
aV4 mi
p1169
aa(lp1170
V1:00 am
p1171
aVClear.
p1172
aV4 mi
p1173
aa(lp1174
V2:00 am
p1175
aVClear.
p1176
aV4 mi
p1177
aa(lp1178
V3:00 am
p1179
aVFog.
p1180
aV3 mi
p1181
aa(lp1182
V4:00 am
p1183
aVFog.
p1184
aV3 mi
p1185
aa(lp1186
V5:00 am
p1187
aVFog.
p1188
aV3 mi
p1189
aa(lp1190
V6:00 am
p1191
aVFog.
p1192
aV3 mi
p1193
aa(lp1194
V7:00 am
p1195
aVFog.
p1196
aV3 mi
p1197
aa(lp1198
V8:00 am
p1199
aVFog.
p1200
aV1 mi
p1201
aa(lp1202
V9:00 am
p1203
aVFog.
p1204
aV1 mi
p1205
aa(lp1206
V10:00 am
p1207
aVFog.
p1208
aV2 mi
p1209
aa(lp1210
V11:00 am
p1211
aVFog.
p1212
aV2 mi
p1213
aa(lp1214
V12:00 pm
p1215
aVFog.
p1216
aV2 mi
p1217
aa(lp1218
V1:00 pm
p1219
aVFog.
p1220
aV2 mi
p1221
aa(lp1222
V2:00 pm
p1223
aVHaze.
p1224
aV2 mi
p1225
aa(lp1226
V3:00 pm
p1227
aVScattered clouds.
p1228
aV2 mi
p1229
aa(lp1230
V4:00 pm
p1231
aVHaze.
p1232
aV2 mi
p1233
aa(lp1234
V5:00 pm
p1235
aVHaze.
p1236
aV2 mi
p1237
aa(lp1238
V6:00 pm
p1239
aVHaze.
p1240
aV2 mi
p1241
aa(lp1242
V7:00 pm
p1243
aVClear.
p1244
aV4 mi
p1245
aa(lp1246
V8:00 pm
p1247
aVClear.
p1248
aV4 mi
p1249
aa(lp1250
V9:00 pm
p1251
aVClear.
p1252
aV4 mi
p1253
aa(lp1254
V10:00 pm
p1255
aVFog.
p1256
aV3 mi
p1257
aa(lp1258
V11:00 pm
p1259
aVFog.
p1260
aV3 mi
p1261
aaa(lp1262
(lp1263
V12:00 am\u000aMon, Nov 14
p1264
aVFog.
p1265
aV3 mi
p1266
aa(lp1267
V1:00 am
p1268
aVFog.
p1269
aV3 mi
p1270
aa(lp1271
V2:00 am
p1272
aVFog.
p1273
aV3 mi
p1274
aa(lp1275
V3:00 am
p1276
aVFog.
p1277
aV2 mi
p1278
aa(lp1279
V4:00 am
p1280
aVFog.
p1281
aV2 mi
p1282
aa(lp1283
V5:00 am
p1284
aVFog.
p1285
aV2 mi
p1286
aa(lp1287
V6:00 am
p1288
aVFog.
p1289
aV2 mi
p1290
aa(lp1291
V7:00 am
p1292
aVFog.
p1293
aV2 mi
p1294
aa(lp1295
V8:00 am
p1296
aVFog.
p1297
aV1 mi
p1298
aa(lp1299
V9:00 am
p1300
aVFog.
p1301
aV1 mi
p1302
aa(lp1303
V10:00 am
p1304
aVFog.
p1305
aV1 mi
p1306
aa(lp1307
V11:00 am
p1308
aVFog.
p1309
aV1 mi
p1310
aa(lp1311
V12:00 pm
p1312
aVFog.
p1313
aV2 mi
p1314
aa(lp1315
V1:00 pm
p1316
aVFog.
p1317
aV2 mi
p1318
aa(lp1319
V2:00 pm
p1320
aVHaze.
p1321
aV2 mi
p1322
aa(lp1323
V3:00 pm
p1324
aVHaze.
p1325
aV2 mi
p1326
aa(lp1327
V4:00 pm
p1328
aVHaze.
p1329
aV2 mi
p1330
aa(lp1331
V5:00 pm
p1332
aVHaze.
p1333
aV2 mi
p1334
aa(lp1335
V6:00 pm
p1336
aVFog.
p1337
aV2 mi
p1338
aa(lp1339
V7:00 pm
p1340
aVFog.
p1341
aV2 mi
p1342
aa(lp1343
V8:00 pm
p1344
aVFog.
p1345
aV2 mi
p1346
aa(lp1347
V9:00 pm
p1348
aVFog.
p1349
aV2 mi
p1350
aa(lp1351
V10:00 pm
p1352
aVFog.
p1353
aV2 mi
p1354
aa(lp1355
V11:00 pm
p1356
aVFog.
p1357
aV2 mi
p1358
aaa(lp1359
(lp1360
V12:00 am\u000aTue, Nov 15
p1361
aVFog.
p1362
aV1 mi
p1363
aa(lp1364
V1:00 am
p1365
aVFog.
p1366
aV1 mi
p1367
aa(lp1368
V2:00 am
p1369
aVFog.
p1370
aV1 mi
p1371
aa(lp1372
V3:00 am
p1373
aVFog.
p1374
aV1 mi
p1375
aa(lp1376
V4:00 am
p1377
aVFog.
p1378
aV1 mi
p1379
aa(lp1380
V5:00 am
p1381
aVFog.
p1382
aV1 mi
p1383
aa(lp1384
V6:00 am
p1385
aVFog.
p1386
aV1 mi
p1387
aa(lp1388
V7:00 am
p1389
aVFog.
p1390
aV1 mi
p1391
aa(lp1392
V8:00 am
p1393
aVFog.
p1394
aV1 mi
p1395
aa(lp1396
V9:00 am
p1397
aVFog.
p1398
aV1 mi
p1399
aa(lp1400
V10:00 am
p1401
aVFog.
p1402
aV1 mi
p1403
aa(lp1404
V11:00 am
p1405
aVFog.
p1406
aV1 mi
p1407
aa(lp1408
V12:00 pm
p1409
aVFog.
p1410
aV1 mi
p1411
aa(lp1412
V1:00 pm
p1413
aVFog.
p1414
aV1 mi
p1415
aa(lp1416
V2:00 pm
p1417
aVFog.
p1418
aV1 mi
p1419
aa(lp1420
V3:00 pm
p1421
aVFog.
p1422
aV1 mi
p1423
aa(lp1424
V4:00 pm
p1425
aVFog.
p1426
aV1 mi
p1427
aa(lp1428
V5:00 pm
p1429
aVFog.
p1430
aV1 mi
p1431
aa(lp1432
V6:00 pm
p1433
aVFog.
p1434
aV1 mi
p1435
aa(lp1436
V7:00 pm
p1437
aVFog.
p1438
aV1 mi
p1439
aa(lp1440
V8:00 pm
p1441
aVFog.
p1442
aV2 mi
p1443
aa(lp1444
V9:00 pm
p1445
aVFog.
p1446
aV1 mi
p1447
aa(lp1448
V10:00 pm
p1449
aVFog.
p1450
aV1 mi
p1451
aa(lp1452
V11:00 pm
p1453
aVFog.
p1454
aV1 mi
p1455
aaa(lp1456
(lp1457
V12:00 am\u000aWed, Nov 16
p1458
aVFog.
p1459
aV2 mi
p1460
aa(lp1461
V1:00 am
p1462
aVFog.
p1463
aV2 mi
p1464
aa(lp1465
V2:00 am
p1466
aVFog.
p1467
aV2 mi
p1468
aa(lp1469
V3:00 am
p1470
aVFog.
p1471
aV2 mi
p1472
aa(lp1473
V4:00 am
p1474
aVFog.
p1475
aV2 mi
p1476
aa(lp1477
V5:00 am
p1478
aVFog.
p1479
aV2 mi
p1480
aa(lp1481
V6:00 am
p1482
aVFog.
p1483
aV2 mi
p1484
aa(lp1485
V7:00 am
p1486
aVFog.
p1487
aV2 mi
p1488
aa(lp1489
V8:00 am
p1490
aVFog.
p1491
aV1 mi
p1492
aa(lp1493
V9:00 am
p1494
aVFog.
p1495
aV1 mi
p1496
aa(lp1497
V10:00 am
p1498
aVFog.
p1499
aV1 mi
p1500
aa(lp1501
V11:00 am
p1502
aVFog.
p1503
aV2 mi
p1504
aa(lp1505
V12:00 pm
p1506
aVFog.
p1507
aV2 mi
p1508
aa(lp1509
V1:00 pm
p1510
aVFog.
p1511
aV2 mi
p1512
aa(lp1513
V2:00 pm
p1514
aVScattered clouds.
p1515
aV2 mi
p1516
aa(lp1517
V3:00 pm
p1518
aVHaze.
p1519
aV2 mi
p1520
aa(lp1521
V4:00 pm
p1522
aVHaze.
p1523
aV2 mi
p1524
aa(lp1525
V5:00 pm
p1526
aVFog.
p1527
aV2 mi
p1528
aa(lp1529
V6:00 pm
p1530
aVFog.
p1531
aV2 mi
p1532
aa(lp1533
V7:00 pm
p1534
aVFog.
p1535
aV2 mi
p1536
aa(lp1537
V8:00 pm
p1538
aVFog.
p1539
aV3 mi
p1540
aa(lp1541
V9:00 pm
p1542
aVFog.
p1543
aV2 mi
p1544
aa(lp1545
V10:00 pm
p1546
aVFog.
p1547
aV2 mi
p1548
aa(lp1549
V11:00 pm
p1550
aVFog.
p1551
aV2 mi
p1552
aaa(lp1553
(lp1554
V12:00 am\u000aThu, Nov 17
p1555
aVFog.
p1556
aV2 mi
p1557
aa(lp1558
V1:00 am
p1559
aVFog.
p1560
aV3 mi
p1561
aa(lp1562
V2:00 am
p1563
aVFog.
p1564
aV2 mi
p1565
aa(lp1566
V3:00 am
p1567
aVFog.
p1568
aV2 mi
p1569
aa(lp1570
V4:00 am
p1571
aVFog.
p1572
aV2 mi
p1573
aa(lp1574
V5:00 am
p1575
aVFog.
p1576
aV2 mi
p1577
aa(lp1578
V6:00 am
p1579
aVFog.
p1580
aV2 mi
p1581
aa(lp1582
V7:00 am
p1583
aVFog.
p1584
aV2 mi
p1585
aa(lp1586
V8:00 am
p1587
aVFog.
p1588
aV1 mi
p1589
aa(lp1590
V9:00 am
p1591
aVFog.
p1592
aV1 mi
p1593
aa(lp1594
V10:00 am
p1595
aVFog.
p1596
aV1 mi
p1597
aa(lp1598
V11:00 am
p1599
aVFog.
p1600
aV2 mi
p1601
aa(lp1602
V12:00 pm
p1603
aVFog.
p1604
aV2 mi
p1605
aa(lp1606
V1:00 pm
p1607
aVHaze.
p1608
aV2 mi
p1609
aa(lp1610
V2:00 pm
p1611
aVScattered clouds.
p1612
aV3 mi
p1613
aa(lp1614
V3:00 pm
p1615
aVScattered clouds.
p1616
aV3 mi
p1617
aa(lp1618
V4:00 pm
p1619
aVScattered clouds.
p1620
aV3 mi
p1621
aa(lp1622
V5:00 pm
p1623
aVScattered clouds.
p1624
aV3 mi
p1625
aa(lp1626
V6:00 pm
p1627
aVScattered clouds.
p1628
aV3 mi
p1629
aa(lp1630
V7:00 pm
p1631
aVPassing clouds.
p1632
aV3 mi
p1633
aa(lp1634
V8:00 pm
p1635
aVPassing clouds.
p1636
aV3 mi
p1637
aa(lp1638
V9:00 pm
p1639
aVFog.
p1640
aV3 mi
p1641
aa(lp1642
V10:00 pm
p1643
aVFog.
p1644
aV3 mi
p1645
aa(lp1646
V11:00 pm
p1647
aVFog.
p1648
aV3 mi
p1649
aaa(lp1650
(lp1651
V12:00 am\u000aFri, Nov 18
p1652
aVFog.
p1653
aV2 mi
p1654
aa(lp1655
V1:00 am
p1656
aVFog.
p1657
aV3 mi
p1658
aa(lp1659
V2:00 am
p1660
aVFog.
p1661
aV3 mi
p1662
aa(lp1663
V3:00 am
p1664
aVFog.
p1665
aV2 mi
p1666
aa(lp1667
V4:00 am
p1668
aVFog.
p1669
aV2 mi
p1670
aa(lp1671
V5:00 am
p1672
aVFog.
p1673
aV2 mi
p1674
aa(lp1675
V6:00 am
p1676
aVFog.
p1677
aV2 mi
p1678
aa(lp1679
V7:00 am
p1680
aVFog.
p1681
aV2 mi
p1682
aa(lp1683
V8:00 am
p1684
aVFog.
p1685
aV1 mi
p1686
aa(lp1687
V9:00 am
p1688
aVFog.
p1689
aV1 mi
p1690
aa(lp1691
V10:00 am
p1692
aVFog.
p1693
aV1 mi
p1694
aa(lp1695
V11:00 am
p1696
aVFog.
p1697
aV2 mi
p1698
aa(lp1699
V12:00 pm
p1700
aVFog.
p1701
aV1 mi
p1702
aa(lp1703
V1:00 pm
p1704
aVFog.
p1705
aV1 mi
p1706
aa(lp1707
V2:00 pm
p1708
aVScattered clouds.
p1709
aV2 mi
p1710
aa(lp1711
V3:00 pm
p1712
aVScattered clouds.
p1713
aV2 mi
p1714
aa(lp1715
V4:00 pm
p1716
aVScattered clouds.
p1717
aV2 mi
p1718
aa(lp1719
V5:00 pm
p1720
aVHaze.
p1721
aV2 mi
p1722
aa(lp1723
V6:00 pm
p1724
aVFog.
p1725
aV2 mi
p1726
aa(lp1727
V7:00 pm
p1728
aVFog.
p1729
aV2 mi
p1730
aa(lp1731
V8:00 pm
p1732
aVFog.
p1733
aV2 mi
p1734
aa(lp1735
V9:00 pm
p1736
aVFog.
p1737
aV2 mi
p1738
aa(lp1739
V10:00 pm
p1740
aVFog.
p1741
aV2 mi
p1742
aa(lp1743
V11:00 pm
p1744
aVFog.
p1745
aV2 mi
p1746
aaa(lp1747
(lp1748
V12:00 am\u000aSat, Nov 19
p1749
aVFog.
p1750
aV2 mi
p1751
aa(lp1752
V1:00 am
p1753
aVFog.
p1754
aV2 mi
p1755
aa(lp1756
V2:00 am
p1757
aVFog.
p1758
aV2 mi
p1759
aa(lp1760
V3:00 am
p1761
aVFog.
p1762
aV2 mi
p1763
aa(lp1764
V4:00 am
p1765
aVFog.
p1766
aV2 mi
p1767
aa(lp1768
V5:00 am
p1769
aVFog.
p1770
aV2 mi
p1771
aa(lp1772
V6:00 am
p1773
aVFog.
p1774
aV3 mi
p1775
aa(lp1776
V7:00 am
p1777
aVFog.
p1778
aV2 mi
p1779
aa(lp1780
V8:00 am
p1781
aVFog.
p1782
aV2 mi
p1783
aa(lp1784
V9:00 am
p1785
aVFog.
p1786
aV2 mi
p1787
aa(lp1788
V10:00 am
p1789
aVFog.
p1790
aV2 mi
p1791
aa(lp1792
V11:00 am
p1793
aVFog.
p1794
aV2 mi
p1795
aa(lp1796
V12:00 pm
p1797
aVFog.
p1798
aV2 mi
p1799
aa(lp1800
V1:00 pm
p1801
aVFog.
p1802
aV2 mi
p1803
aa(lp1804
V2:00 pm
p1805
aVFog.
p1806
aV2 mi
p1807
aa(lp1808
V3:00 pm
p1809
aVFog.
p1810
aV2 mi
p1811
aa(lp1812
V4:00 pm
p1813
aVFog.
p1814
aV2 mi
p1815
aa(lp1816
V5:00 pm
p1817
aVFog.
p1818
aV2 mi
p1819
aa(lp1820
V6:00 pm
p1821
aVFog.
p1822
aV2 mi
p1823
aa(lp1824
V7:00 pm
p1825
aVFog.
p1826
aV3 mi
p1827
aa(lp1828
V8:00 pm
p1829
aVFog.
p1830
aV3 mi
p1831
aa(lp1832
V9:00 pm
p1833
aVFog.
p1834
aV2 mi
p1835
aa(lp1836
V10:00 pm
p1837
aVFog.
p1838
aV3 mi
p1839
aa(lp1840
V11:00 pm
p1841
aVFog.
p1842
aV2 mi
p1843
aaa(lp1844
(lp1845
V12:00 am\u000aSun, Nov 20
p1846
aVFog.
p1847
aV2 mi
p1848
aa(lp1849
V1:00 am
p1850
aVFog.
p1851
aV2 mi
p1852
aa(lp1853
V2:00 am
p1854
aVFog.
p1855
aV2 mi
p1856
aa(lp1857
V3:00 am
p1858
aVFog.
p1859
aV2 mi
p1860
aa(lp1861
V4:00 am
p1862
aVFog.
p1863
aV2 mi
p1864
aa(lp1865
V5:00 am
p1866
aVFog.
p1867
aV2 mi
p1868
aa(lp1869
V6:00 am
p1870
aVFog.
p1871
aV3 mi
p1872
aa(lp1873
V7:00 am
p1874
aVFog.
p1875
aV2 mi
p1876
aa(lp1877
V8:00 am
p1878
aVFog.
p1879
aV2 mi
p1880
aa(lp1881
V9:00 am
p1882
aVFog.
p1883
aV2 mi
p1884
aa(lp1885
V10:00 am
p1886
aVFog.
p1887
aV2 mi
p1888
aa(lp1889
V11:00 am
p1890
aVFog.
p1891
aV2 mi
p1892
aa(lp1893
V12:00 pm
p1894
aVFog.
p1895
aV3 mi
p1896
aa(lp1897
V1:00 pm
p1898
aVClear.
p1899
aV4 mi
p1900
aa(lp1901
V2:00 pm
p1902
aVSunny.
p1903
aV10 mi
p1904
aa(lp1905
V3:00 pm
p1906
aVSunny.
p1907
aV10 mi
p1908
aa(lp1909
V4:00 pm
p1910
aVPassing clouds.
p1911
aVN/A
p1912
aa(lp1913
V5:00 pm
p1914
aVSunny.
p1915
aV10 mi
p1916
aa(lp1917
V6:00 pm
p1918
aVClear.
p1919
aV5 mi
p1920
aa(lp1921
V7:00 pm
p1922
aVClear.
p1923
aV4 mi
p1924
aa(lp1925
V8:00 pm
p1926
aVClear.
p1927
aV4 mi
p1928
aa(lp1929
V9:00 pm
p1930
aVClear.
p1931
aV4 mi
p1932
aa(lp1933
V10:00 pm
p1934
aVClear.
p1935
aV4 mi
p1936
aa(lp1937
V11:00 pm
p1938
aVFog.
p1939
aV3 mi
p1940
aaa(lp1941
(lp1942
V12:00 am\u000aMon, Nov 21
p1943
aVFog.
p1944
aV3 mi
p1945
aa(lp1946
V1:00 am
p1947
aVFog.
p1948
aV2 mi
p1949
aa(lp1950
V2:00 am
p1951
aVFog.
p1952
aV2 mi
p1953
aa(lp1954
V3:00 am
p1955
aVFog.
p1956
aV2 mi
p1957
aa(lp1958
V4:00 am
p1959
aVFog.
p1960
aV2 mi
p1961
aa(lp1962
V5:00 am
p1963
aVFog.
p1964
aV2 mi
p1965
aa(lp1966
V6:00 am
p1967
aVFog.
p1968
aV2 mi
p1969
aa(lp1970
V7:00 am
p1971
aVFog.
p1972
aV2 mi
p1973
aa(lp1974
V8:00 am
p1975
aVFog.
p1976
aV1 mi
p1977
aa(lp1978
V9:00 am
p1979
aVFog.
p1980
aV2 mi
p1981
aa(lp1982
V10:00 am
p1983
aVFog.
p1984
aV2 mi
p1985
aa(lp1986
V11:00 am
p1987
aVFog.
p1988
aV2 mi
p1989
aa(lp1990
V12:00 pm
p1991
aVFog.
p1992
aV2 mi
p1993
aa(lp1994
V1:00 pm
p1995
aVFog.
p1996
aV2 mi
p1997
aa(lp1998
V2:00 pm
p1999
aVLight rain. Fog.
p2000
aV1 mi
p2001
aa(lp2002
V3:00 pm
p2003
aVFog.
p2004
aV2 mi
p2005
aa(lp2006
V4:00 pm
p2007
aVFog.
p2008
aV2 mi
p2009
aa(lp2010
V5:00 pm
p2011
aVFog.
p2012
aV1 mi
p2013
aa(lp2014
V6:00 pm
p2015
aVFog.
p2016
aV1 mi
p2017
aa(lp2018
V7:00 pm
p2019
aVFog.
p2020
aV2 mi
p2021
aa(lp2022
V8:00 pm
p2023
aVFog.
p2024
aV2 mi
p2025
aa(lp2026
V9:00 pm
p2027
aVFog.
p2028
aV2 mi
p2029
aa(lp2030
V10:00 pm
p2031
aVFog.
p2032
aV2 mi
p2033
aa(lp2034
V11:00 pm
p2035
aVFog.
p2036
aV2 mi
p2037
aaa(lp2038
(lp2039
V12:00 am\u000aTue, Nov 22
p2040
aVFog.
p2041
aV3 mi
p2042
aa(lp2043
V1:00 am
p2044
aVFog.
p2045
aV2 mi
p2046
aa(lp2047
V2:00 am
p2048
aVFog.
p2049
aV2 mi
p2050
aa(lp2051
V3:00 am
p2052
aVFog.
p2053
aV2 mi
p2054
aa(lp2055
V4:00 am
p2056
aVFog.
p2057
aV2 mi
p2058
aa(lp2059
V5:00 am
p2060
aVPassing clouds.
p2061
aVN/A
p2062
aa(lp2063
V6:00 am
p2064
aVPassing clouds.
p2065
aVN/A
p2066
aa(lp2067
V7:00 am
p2068
aVPassing clouds.
p2069
aVN/A
p2070
aa(lp2071
V8:00 am
p2072
aVScattered clouds.
p2073
aVN/A
p2074
aa(lp2075
V9:00 am
p2076
aVScattered clouds.
p2077
aVN/A
p2078
aa(lp2079
V10:00 am
p2080
aVScattered clouds.
p2081
aVN/A
p2082
aa(lp2083
V11:00 am
p2084
aVScattered clouds.
p2085
aVN/A
p2086
aa(lp2087
V12:00 pm
p2088
aVScattered clouds.
p2089
aVN/A
p2090
aa(lp2091
V1:00 pm
p2092
aVPartly sunny.
p2093
aVN/A
p2094
aa(lp2095
V2:00 pm
p2096
aVPartly sunny.
p2097
aVN/A
p2098
aa(lp2099
V3:00 pm
p2100
aVScattered clouds.
p2101
aVN/A
p2102
aa(lp2103
V4:00 pm
p2104
aVScattered clouds.
p2105
aVN/A
p2106
aa(lp2107
V5:00 pm
p2108
aVScattered clouds.
p2109
aVN/A
p2110
aa(lp2111
V6:00 pm
p2112
aVPartly sunny.
p2113
aVN/A
p2114
aa(lp2115
V7:00 pm
p2116
aVPassing clouds.
p2117
aVN/A
p2118
aa(lp2119
V8:00 pm
p2120
aVPassing clouds.
p2121
aVN/A
p2122
aa(lp2123
V9:00 pm
p2124
aVPassing clouds.
p2125
aVN/A
p2126
aa(lp2127
V10:00 pm
p2128
aVLight rain. Passing clouds.
p2129
aVN/A
p2130
aa(lp2131
V11:00 pm
p2132
aVLight rain. Passing clouds.
p2133
aVN/A
p2134
aaa(lp2135
(lp2136
V12:00 am\u000aWed, Nov 23
p2137
aVPassing clouds.
p2138
aVN/A
p2139
aa(lp2140
V1:00 am
p2141
aVPassing clouds.
p2142
aVN/A
p2143
aa(lp2144
V2:00 am
p2145
aVPassing clouds.
p2146
aVN/A
p2147
aa(lp2148
V3:00 am
p2149
aVPassing clouds.
p2150
aVN/A
p2151
aa(lp2152
V4:00 am
p2153
aVPassing clouds.
p2154
aVN/A
p2155
aa(lp2156
V5:00 am
p2157
aVPassing clouds.
p2158
aVN/A
p2159
aa(lp2160
V6:00 am
p2161
aVPassing clouds.
p2162
aVN/A
p2163
aa(lp2164
V7:00 am
p2165
aVPassing clouds.
p2166
aVN/A
p2167
aa(lp2168
V8:00 am
p2169
aVScattered clouds.
p2170
aVN/A
p2171
aa(lp2172
V9:00 am
p2173
aVScattered clouds.
p2174
aVN/A
p2175
aa(lp2176
V10:00 am
p2177
aVScattered clouds.
p2178
aVN/A
p2179
aa(lp2180
V11:00 am
p2181
aVScattered clouds.
p2182
aVN/A
p2183
aa(lp2184
V12:00 pm
p2185
aVScattered clouds.
p2186
aVN/A
p2187
aa(lp2188
V1:00 pm
p2189
aVPassing clouds.
p2190
aVN/A
p2191
aa(lp2192
V2:00 pm
p2193
aVSunny.
p2194
aV10 mi
p2195
aa(lp2196
V3:00 pm
p2197
aVSunny.
p2198
aV10 mi
p2199
aa(lp2200
V4:00 pm
p2201
aVPassing clouds.
p2202
aVN/A
p2203
aa(lp2204
V5:00 pm
p2205
aVPassing clouds.
p2206
aVN/A
p2207
aa(lp2208
V6:00 pm
p2209
aVSunny.
p2210
aV10 mi
p2211
aa(lp2212
V7:00 pm
p2213
aVClear.
p2214
aV10 mi
p2215
aa(lp2216
V8:00 pm
p2217
aVClear.
p2218
aV10 mi
p2219
aa(lp2220
V9:00 pm
p2221
aVPassing clouds.
p2222
aVN/A
p2223
aa(lp2224
V10:00 pm
p2225
aVClear.
p2226
aV10 mi
p2227
aa(lp2228
V11:00 pm
p2229
aVPassing clouds.
p2230
aVN/A
p2231
aaa(lp2232
(lp2233
V12:00 am\u000aThu, Nov 24
p2234
aVClear.
p2235
aV10 mi
p2236
aa(lp2237
V1:00 am
p2238
aVClear.
p2239
aV10 mi
p2240
aa(lp2241
V2:00 am
p2242
aVClear.
p2243
aV10 mi
p2244
aa(lp2245
V3:00 am
p2246
aVPassing clouds.
p2247
aVN/A
p2248
aa(lp2249
V4:00 am
p2250
aVPassing clouds.
p2251
aVN/A
p2252
aa(lp2253
V5:00 am
p2254
aVPassing clouds.
p2255
aVN/A
p2256
aa(lp2257
V6:00 am
p2258
aVPassing clouds.
p2259
aVN/A
p2260
aa(lp2261
V7:00 am
p2262
aVPassing clouds.
p2263
aVN/A
p2264
aa(lp2265
V8:00 am
p2266
aVScattered clouds.
p2267
aVN/A
p2268
aa(lp2269
V9:00 am
p2270
aVScattered clouds.
p2271
aVN/A
p2272
aa(lp2273
V10:00 am
p2274
aVLight rain. Fog.
p2275
aV3 mi
p2276
aa(lp2277
V11:00 am
p2278
aVLight rain. Partly sunny.
p2279
aV4 mi
p2280
aa(lp2281
V12:00 pm
p2282
aVPartly sunny.
p2283
aV5 mi
p2284
aa(lp2285
V1:00 pm
p2286
aVScattered clouds.
p2287
aVN/A
p2288
aa(lp2289
V2:00 pm
p2290
aVScattered clouds.
p2291
aVN/A
p2292
aa(lp2293
V3:00 pm
p2294
aVPartly sunny.
p2295
aVN/A
p2296
aa(lp2297
V4:00 pm
p2298
aVPartly sunny.
p2299
aVN/A
p2300
aa(lp2301
V5:00 pm
p2302
aVPartly sunny.
p2303
aVN/A
p2304
aa(lp2305
V6:00 pm
p2306
aVPartly sunny.
p2307
aVN/A
p2308
aa(lp2309
V7:00 pm
p2310
aVPassing clouds.
p2311
aVN/A
p2312
aa(lp2313
V8:00 pm
p2314
aVPassing clouds.
p2315
aVN/A
p2316
aa(lp2317
V9:00 pm
p2318
aVPassing clouds.
p2319
aVN/A
p2320
aa(lp2321
V10:00 pm
p2322
aVPassing clouds.
p2323
aVN/A
p2324
aa(lp2325
V11:00 pm
p2326
aVPassing clouds.
p2327
aVN/A
p2328
aaa(lp2329
(lp2330
V12:00 am\u000aFri, Nov 25
p2331
aVPassing clouds.
p2332
aV6 mi
p2333
aa(lp2334
V1:00 am
p2335
aVPassing clouds.
p2336
aV5 mi
p2337
aa(lp2338
V2:00 am
p2339
aVPassing clouds.
p2340
aV5 mi
p2341
aa(lp2342
V3:00 am
p2343
aVClear.
p2344
aV4 mi
p2345
aa(lp2346
V4:00 am
p2347
aVClear.
p2348
aV4 mi
p2349
aa(lp2350
V5:00 am
p2351
aVFog.
p2352
aV3 mi
p2353
aa(lp2354
V6:00 am
p2355
aVFog.
p2356
aV3 mi
p2357
aa(lp2358
V7:00 am
p2359
aVClear.
p2360
aV4 mi
p2361
aa(lp2362
V8:00 am
p2363
aVFog.
p2364
aV2 mi
p2365
aa(lp2366
V9:00 am
p2367
aVFog.
p2368
aV1 mi
p2369
aa(lp2370
V10:00 am
p2371
aVFog.
p2372
aV2 mi
p2373
aa(lp2374
V11:00 am
p2375
aVFog.
p2376
aV2 mi
p2377
aa(lp2378
V12:00 pm
p2379
aVPartly sunny.
p2380
aV3 mi
p2381
aa(lp2382
V1:00 pm
p2383
aVPartly sunny.
p2384
aV3 mi
p2385
aa(lp2386
V2:00 pm
p2387
aVScattered clouds.
p2388
aV3 mi
p2389
aa(lp2390
V3:00 pm
p2391
aVScattered clouds.
p2392
aVN/A
p2393
aa(lp2394
V4:00 pm
p2395
aVPartly sunny.
p2396
aVN/A
p2397
aa(lp2398
V5:00 pm
p2399
aVPartly sunny.
p2400
aVN/A
p2401
aa(lp2402
V6:00 pm
p2403
aVPartly sunny.
p2404
aVN/A
p2405
aa(lp2406
V7:00 pm
p2407
aVPassing clouds.
p2408
aVN/A
p2409
aa(lp2410
V8:00 pm
p2411
aVPassing clouds.
p2412
aVN/A
p2413
aa(lp2414
V9:00 pm
p2415
aVPassing clouds.
p2416
aVN/A
p2417
aa(lp2418
V10:00 pm
p2419
aVPassing clouds.
p2420
aV5 mi
p2421
aa(lp2422
V11:00 pm
p2423
aVPassing clouds.
p2424
aV4 mi
p2425
aaa(lp2426
(lp2427
V12:00 am\u000aSat, Nov 26
p2428
aVPassing clouds.
p2429
aV4 mi
p2430
aa(lp2431
V1:00 am
p2432
aVPassing clouds.
p2433
aV4 mi
p2434
aa(lp2435
V2:00 am
p2436
aVPassing clouds.
p2437
aV4 mi
p2438
aa(lp2439
V3:00 am
p2440
aVFog.
p2441
aV3 mi
p2442
aa(lp2443
V4:00 am
p2444
aVFog.
p2445
aV3 mi
p2446
aa(lp2447
V5:00 am
p2448
aVFog.
p2449
aV3 mi
p2450
aa(lp2451
V6:00 am
p2452
aVFog.
p2453
aV2 mi
p2454
aa(lp2455
V7:00 am
p2456
aVFog.
p2457
aV2 mi
p2458
aa(lp2459
V8:00 am
p2460
aVFog.
p2461
aV2 mi
p2462
aa(lp2463
V9:00 am
p2464
aVFog.
p2465
aV2 mi
p2466
aa(lp2467
V10:00 am
p2468
aVFog.
p2469
aV3 mi
p2470
aa(lp2471
V11:00 am
p2472
aVPassing clouds.
p2473
aVN/A
p2474
aa(lp2475
V12:00 pm
p2476
aVPassing clouds.
p2477
aVN/A
p2478
aa(lp2479
V1:00 pm
p2480
aVPassing clouds.
p2481
aVN/A
p2482
aa(lp2483
V2:00 pm
p2484
aVPassing clouds.
p2485
aVN/A
p2486
aa(lp2487
V3:00 pm
p2488
aVPassing clouds.
p2489
aVN/A
p2490
aa(lp2491
V4:00 pm
p2492
aVPassing clouds.
p2493
aVN/A
p2494
aa(lp2495
V5:00 pm
p2496
aVSunny.
p2497
aV10 mi
p2498
aa(lp2499
V6:00 pm
p2500
aVSunny.
p2501
aV10 mi
p2502
aa(lp2503
V7:00 pm
p2504
aVClear.
p2505
aV10 mi
p2506
aa(lp2507
V8:00 pm
p2508
aVClear.
p2509
aV10 mi
p2510
aa(lp2511
V9:00 pm
p2512
aVClear.
p2513
aV10 mi
p2514
aa(lp2515
V10:00 pm
p2516
aVClear.
p2517
aV10 mi
p2518
aa(lp2519
V11:00 pm
p2520
aVPassing clouds.
p2521
aVN/A
p2522
aaa(lp2523
(lp2524
V12:00 am\u000aSun, Nov 27
p2525
aVClear.
p2526
aV10 mi
p2527
aa(lp2528
V1:00 am
p2529
aVClear.
p2530
aV5 mi
p2531
aa(lp2532
V2:00 am
p2533
aVClear.
p2534
aV5 mi
p2535
aa(lp2536
V3:00 am
p2537
aVClear.
p2538
aV5 mi
p2539
aa(lp2540
V4:00 am
p2541
aVClear.
p2542
aV5 mi
p2543
aa(lp2544
V5:00 am
p2545
aVClear.
p2546
aV5 mi
p2547
aa(lp2548
V6:00 am
p2549
aVClear.
p2550
aV5 mi
p2551
aa(lp2552
V7:00 am
p2553
aVClear.
p2554
aV5 mi
p2555
aa(lp2556
V8:00 am
p2557
aVClear.
p2558
aV4 mi
p2559
aa(lp2560
V9:00 am
p2561
aVFog.
p2562
aV3 mi
p2563
aa(lp2564
V10:00 am
p2565
aVClear.
p2566
aV4 mi
p2567
aa(lp2568
V11:00 am
p2569
aVClear.
p2570
aV4 mi
p2571
aa(lp2572
V12:00 pm
p2573
aVPassing clouds.
p2574
aVN/A
p2575
aa(lp2576
V1:00 pm
p2577
aVPassing clouds.
p2578
aVN/A
p2579
aa(lp2580
V2:00 pm
p2581
aVPassing clouds.
p2582
aVN/A
p2583
aa(lp2584
V3:00 pm
p2585
aVPassing clouds.
p2586
aVN/A
p2587
aa(lp2588
V4:00 pm
p2589
aVPassing clouds.
p2590
aVN/A
p2591
aa(lp2592
V5:00 pm
p2593
aVPassing clouds.
p2594
aVN/A
p2595
aa(lp2596
V6:00 pm
p2597
aVClear.
p2598
aV5 mi
p2599
aa(lp2600
V7:00 pm
p2601
aVClear.
p2602
aV5 mi
p2603
aa(lp2604
V8:00 pm
p2605
aVClear.
p2606
aV5 mi
p2607
aa(lp2608
V9:00 pm
p2609
aVClear.
p2610
aV5 mi
p2611
aa(lp2612
V10:00 pm
p2613
aVClear.
p2614
aV4 mi
p2615
aa(lp2616
V11:00 pm
p2617
aVClear.
p2618
aV4 mi
p2619
aaa(lp2620
(lp2621
V12:00 am\u000aMon, Nov 28
p2622
aVClear.
p2623
aV4 mi
p2624
aa(lp2625
V1:00 am
p2626
aVClear.
p2627
aV4 mi
p2628
aa(lp2629
V2:00 am
p2630
aVClear.
p2631
aV4 mi
p2632
aa(lp2633
V3:00 am
p2634
aVClear.
p2635
aV4 mi
p2636
aa(lp2637
V4:00 am
p2638
aVFog.
p2639
aV3 mi
p2640
aa(lp2641
V5:00 am
p2642
aVFog.
p2643
aV3 mi
p2644
aa(lp2645
V6:00 am
p2646
aVFog.
p2647
aV3 mi
p2648
aa(lp2649
V7:00 am
p2650
aVFog.
p2651
aV3 mi
p2652
aa(lp2653
V8:00 am
p2654
aVFog.
p2655
aV2 mi
p2656
aa(lp2657
V9:00 am
p2658
aVFog.
p2659
aV2 mi
p2660
aa(lp2661
V10:00 am
p2662
aVFog.
p2663
aV2 mi
p2664
aa(lp2665
V11:00 am
p2666
aVFog.
p2667
aV2 mi
p2668
aa(lp2669
V12:00 pm
p2670
aVScattered clouds.
p2671
aV2 mi
p2672
aa(lp2673
V1:00 pm
p2674
aVScattered clouds.
p2675
aV2 mi
p2676
aa(lp2677
V2:00 pm
p2678
aVHaze.
p2679
aV3 mi
p2680
aa(lp2681
V3:00 pm
p2682
aVHaze.
p2683
aV3 mi
p2684
aa(lp2685
V4:00 pm
p2686
aVScattered clouds.
p2687
aV3 mi
p2688
aa(lp2689
V5:00 pm
p2690
aVScattered clouds.
p2691
aV3 mi
p2692
aa(lp2693
V6:00 pm
p2694
aVScattered clouds.
p2695
aV4 mi
p2696
aa(lp2697
V7:00 pm
p2698
aVPassing clouds.
p2699
aV4 mi
p2700
aa(lp2701
V8:00 pm
p2702
aVPassing clouds.
p2703
aV4 mi
p2704
aa(lp2705
V9:00 pm
p2706
aVPassing clouds.
p2707
aV4 mi
p2708
aa(lp2709
V10:00 pm
p2710
aVPassing clouds.
p2711
aV4 mi
p2712
aa(lp2713
V11:00 pm
p2714
aVPassing clouds.
p2715
aV4 mi
p2716
aaa(lp2717
(lp2718
V12:00 am\u000aTue, Nov 29
p2719
aVFog.
p2720
aV3 mi
p2721
aa(lp2722
V1:00 am
p2723
aVPassing clouds.
p2724
aV4 mi
p2725
aa(lp2726
V2:00 am
p2727
aVPassing clouds.
p2728
aV4 mi
p2729
aa(lp2730
V3:00 am
p2731
aVPassing clouds.
p2732
aV4 mi
p2733
aa(lp2734
V4:00 am
p2735
aVPassing clouds.
p2736
aV4 mi
p2737
aa(lp2738
V5:00 am
p2739
aVLight rain. Passing clouds.
p2740
aV4 mi
p2741
aa(lp2742
V6:00 am
p2743
aVLight rain. Fog.
p2744
aV3 mi
p2745
aa(lp2746
V7:00 am
p2747
aVLight rain. Fog.
p2748
aV3 mi
p2749
aa(lp2750
V8:00 am
p2751
aVLight rain. Fog.
p2752
aV2 mi
p2753
aa(lp2754
V9:00 am
p2755
aVFog.
p2756
aV2 mi
p2757
aa(lp2758
V10:00 am
p2759
aVFog.
p2760
aV2 mi
p2761
aa(lp2762
V11:00 am
p2763
aVFog.
p2764
aV3 mi
p2765
aa(lp2766
V12:00 pm
p2767
aVClear.
p2768
aV5 mi
p2769
aa(lp2770
V1:00 pm
p2771
aVPassing clouds.
p2772
aVN/A
p2773
aa(lp2774
V2:00 pm
p2775
aVScattered clouds.
p2776
aVN/A
p2777
aa(lp2778
V3:00 pm
p2779
aVScattered clouds.
p2780
aVN/A
p2781
aa(lp2782
V4:00 pm
p2783
aVPassing clouds.
p2784
aVN/A
p2785
aa(lp2786
V5:00 pm
p2787
aVSunny.
p2788
aV10 mi
p2789
aa(lp2790
V6:00 pm
p2791
aVSunny.
p2792
aV10 mi
p2793
aa(lp2794
V7:00 pm
p2795
aVClear.
p2796
aV10 mi
p2797
aa(lp2798
V8:00 pm
p2799
aVClear.
p2800
aV10 mi
p2801
aa(lp2802
V9:00 pm
p2803
aVClear.
p2804
aV10 mi
p2805
aa(lp2806
V10:00 pm
p2807
aVPassing clouds.
p2808
aVN/A
p2809
aa(lp2810
V11:00 pm
p2811
aVPassing clouds.
p2812
aVN/A
p2813
aaa(lp2814
(lp2815
V12:00 am\u000aWed, Nov 30
p2816
aVPassing clouds.
p2817
aVN/A
p2818
aa(lp2819
V1:00 am
p2820
aVPassing clouds.
p2821
aV4 mi
p2822
aa(lp2823
V2:00 am
p2824
aVPassing clouds.
p2825
aV4 mi
p2826
aa(lp2827
V3:00 am
p2828
aVPassing clouds.
p2829
aV5 mi
p2830
aa(lp2831
V4:00 am
p2832
aVPassing clouds.
p2833
aV5 mi
p2834
aa(lp2835
V5:00 am
p2836
aVPassing clouds.
p2837
aV4 mi
p2838
aa(lp2839
V6:00 am
p2840
aVPassing clouds.
p2841
aV4 mi
p2842
aa(lp2843
V7:00 am
p2844
aVPassing clouds.
p2845
aV4 mi
p2846
aa(lp2847
V8:00 am
p2848
aVFog.
p2849
aV2 mi
p2850
aa(lp2851
V9:00 am
p2852
aVScattered clouds.
p2853
aV4 mi
p2854
aa(lp2855
V10:00 am
p2856
aVScattered clouds.
p2857
aV4 mi
p2858
aa(lp2859
V11:00 am
p2860
aVScattered clouds.
p2861
aV4 mi
p2862
aa(lp2863
V12:00 pm
p2864
aVSunny.
p2865
aV10 mi
p2866
aa(lp2867
V1:00 pm
p2868
aVSunny.
p2869
aV10 mi
p2870
aa(lp2871
V2:00 pm
p2872
aVPassing clouds.
p2873
aVN/A
p2874
aa(lp2875
V3:00 pm
p2876
aVSunny.
p2877
aV10 mi
p2878
aa(lp2879
V4:00 pm
p2880
aVPassing clouds.
p2881
aVN/A
p2882
aa(lp2883
V5:00 pm
p2884
aVPassing clouds.
p2885
aVN/A
p2886
aa(lp2887
V6:00 pm
p2888
aVSunny.
p2889
aV10 mi
p2890
aa(lp2891
V7:00 pm
p2892
aVClear.
p2893
aV10 mi
p2894
aa(lp2895
V8:00 pm
p2896
aVClear.
p2897
aV5 mi
p2898
aa(lp2899
V9:00 pm
p2900
aVClear.
p2901
aV4 mi
p2902
aa(lp2903
V10:00 pm
p2904
aVClear.
p2905
aV4 mi
p2906
aa(lp2907
V11:00 pm
p2908
aVClear.
p2909
aV4 mi
p2910
aaa.